target datalayout = "e-m:e-p270:32:32-p271:32:32-p272:64:64-i64:64-i128:128-f80:128-n8:16:32:64-S128"
target triple = "x86_64-pc-linux-gnu"

%struct.H5FL_blk_head_t = type { i8, i32, i32, i64, ptr, ptr }
%struct.H5O_msg_class_t = type { i32, ptr, i64, i32, ptr, ptr, ptr, ptr, ptr, ptr, ptr, ptr, ptr, ptr, ptr, ptr, ptr, ptr, ptr, ptr }
%struct.H5FL_seq_head_t = type { %struct.H5FL_blk_head_t, i64 }
%struct.H5A_compact_bt_ud_t = type { ptr, ptr, i8 }
%struct.H5O_mesg_operator_t = type { i32, %union.anon.0 }
%union.anon.0 = type { ptr }
%struct.H5A_attr_table_t = type { i64, i64, ptr }
%struct.H5O_t = type { %struct.H5C_cache_entry_t, i64, i64, i8, i64, i8, i32, i8, i8, i64, i64, i64, i64, i32, i32, i64, i64, ptr, i64, i64, i64, i64, ptr, i8, ptr }
%struct.H5C_cache_entry_t = type { ptr, i64, i64, ptr, i8, ptr, i8, i8, i8, i8, i32, i8, i8, i8, i8, i8, i32, ptr, i32, i32, i32, i32, i32, i8, i8, ptr, ptr, ptr, ptr, ptr, ptr, i8, i32, i8, i64, ptr, i64, i64, i32, i8, i32, i32, i8, ptr, ptr, ptr }

@.str.3 = private unnamed_addr constant [100 x i8] c"generated/home/dtcxzyw/WorkSpace/Projects/compilers/llvm-opt-benchmark/bench/hdf5/hdf5/src/H5Aint.c\00", align 1
@H5E_ATTR_g = external global i64, align 8
@H5E_CANTFREE_g = external global i64, align 8
@H5O_MSG_ATTR = external constant [1 x %struct.H5O_msg_class_t], align 16
@__func__.H5A__compact_build_table = private unnamed_addr constant [25 x i8] c"H5A__compact_build_table\00", align 1
@H5E_BADITER_g = external global i64, align 8
@.str.58 = private unnamed_addr constant [31 x i8] c"error building attribute table\00", align 1
@H5E_CANTSORT_g = external global i64, align 8
@.str.59 = private unnamed_addr constant [30 x i8] c"error sorting attribute table\00", align 1
@.str.60 = private unnamed_addr constant [34 x i8] c"unable to release attribute table\00", align 1
@H5_H5A_t_ptr_seq_free_list = internal global %struct.H5FL_seq_head_t { %struct.H5FL_blk_head_t { i8 0, i32 0, i32 0, i64 0, ptr @.str.99, ptr null }, i64 8 }, align 8
@__func__.H5A__attr_release_table = private unnamed_addr constant [24 x i8] c"H5A__attr_release_table\00", align 1
@.str.67 = private unnamed_addr constant [28 x i8] c"unable to release attribute\00", align 1

; Function Attrs: nounwind uwtable
define i32 @H5A__attr_release_table(ptr noundef %0) #0 {
  %2 = alloca ptr, align 8
  %3 = alloca i32, align 4
  %4 = alloca i8, align 1
  %5 = alloca i64, align 8
  store ptr %0, ptr %2, align 8
  store i32 0, ptr %3, align 4
  store i8 0, ptr %4, align 1
  %6 = load ptr, ptr %2, align 8
  %7 = getelementptr inbounds %struct.H5A_attr_table_t, ptr %6, i32 0, i32 0
  %8 = load i64, ptr %7, align 8
  %9 = icmp ugt i64 %8, 0
  br i1 %9, label %10, label %60

10:                                               ; preds = %1
  store i64 0, ptr %5, align 8
  br label %11

11:                                               ; preds = %50, %10
  %12 = load i64, ptr %5, align 8
  %13 = load ptr, ptr %2, align 8
  %14 = getelementptr inbounds %struct.H5A_attr_table_t, ptr %13, i32 0, i32 0
  %15 = load i64, ptr %14, align 8
  %16 = icmp ult i64 %12, %15
  br i1 %16, label %17, label %53

17:                                               ; preds = %11
  %18 = load ptr, ptr %2, align 8
  %19 = getelementptr inbounds %struct.H5A_attr_table_t, ptr %18, i32 0, i32 2
  %20 = load ptr, ptr %19, align 8
  %21 = load i64, ptr %5, align 8
  %22 = getelementptr inbounds ptr, ptr %20, i64 %21
  %23 = load ptr, ptr %22, align 8
  %24 = icmp ne ptr %23, null
  br i1 %24, label %25, label %49

25:                                               ; preds = %17
  %26 = load ptr, ptr %2, align 8
  %27 = getelementptr inbounds %struct.H5A_attr_table_t, ptr %26, i32 0, i32 2
  %28 = load ptr, ptr %27, align 8
  %29 = load i64, ptr %5, align 8
  %30 = getelementptr inbounds ptr, ptr %28, i64 %29
  %31 = load ptr, ptr %30, align 8
  %32 = call i32 @H5A__close(ptr noundef %31)
  %33 = icmp slt i32 %32, 0
  br i1 %33, label %34, label %49

34:                                               ; preds = %25
  br label %35

35:                                               ; preds = %34
  br label %36

36:                                               ; preds = %35
  br label %37

37:                                               ; preds = %36
  %38 = load i64, ptr @H5E_ATTR_g, align 8
  %39 = load i64, ptr @H5E_CANTFREE_g, align 8
  %40 = call i32 (ptr, ptr, i32, i64, i64, ptr, ...) @H5E_printf_stack(ptr noundef @.str.3, ptr noundef @__func__.H5A__attr_release_table, i32 noundef 1909, i64 noundef %38, i64 noundef %39, ptr noundef @.str.67)
  br label %41

41:                                               ; preds = %37
  store i8 1, ptr %4, align 1
  %42 = load i8, ptr %4, align 1
  %43 = trunc i8 %42 to i1
  %44 = zext i1 %43 to i8
  store i8 %44, ptr %4, align 1
  br label %45

45:                                               ; preds = %41
  br label %46

46:                                               ; preds = %45
  store i32 -1, ptr %3, align 4
  br label %62

47:                                               ; No predecessors!
  br label %48

48:                                               ; preds = %47
  br label %49

49:                                               ; preds = %48, %25, %17
  br label %50

50:                                               ; preds = %49
  %51 = load i64, ptr %5, align 8
  %52 = add i64 %51, 1
  store i64 %52, ptr %5, align 8
  br label %11

53:                                               ; preds = %11
  %54 = load ptr, ptr %2, align 8
  %55 = getelementptr inbounds %struct.H5A_attr_table_t, ptr %54, i32 0, i32 2
  %56 = load ptr, ptr %55, align 8
  %57 = call ptr @H5FL_seq_free(ptr noundef @H5_H5A_t_ptr_seq_free_list, ptr noundef %56)
  %58 = load ptr, ptr %2, align 8
  %59 = getelementptr inbounds %struct.H5A_attr_table_t, ptr %58, i32 0, i32 2
  store ptr %57, ptr %59, align 8
  br label %61

60:                                               ; preds = %1
  br label %61

61:                                               ; preds = %60, %53
  br label %62

62:                                               ; preds = %61, %46
  %63 = load i32, ptr %3, align 4
  ret i32 %63
}

; Function Attrs: nounwind uwtable
define internal i32 @H5A__attr_sort_table(ptr noundef %0, i32 noundef %1, i32 noundef %2) #0 {
  %4 = alloca ptr, align 8
  %5 = alloca i32, align 4
  %6 = alloca i32, align 4
  store ptr %0, ptr %4, align 8
  store i32 %1, ptr %5, align 4
  store i32 %2, ptr %6, align 4
  %7 = load i32, ptr %5, align 4
  %8 = icmp eq i32 %7, 0
  br i1 %8, label %9, label %32

9:                                                ; preds = %3
  %10 = load i32, ptr %6, align 4
  %11 = icmp eq i32 %10, 0
  br i1 %11, label %12, label %19

12:                                               ; preds = %9
  %13 = load ptr, ptr %4, align 8
  %14 = getelementptr inbounds %struct.H5A_attr_table_t, ptr %13, i32 0, i32 2
  %15 = load ptr, ptr %14, align 8
  %16 = load ptr, ptr %4, align 8
  %17 = getelementptr inbounds %struct.H5A_attr_table_t, ptr %16, i32 0, i32 0
  %18 = load i64, ptr %17, align 8
  call void @qsort(ptr noundef %15, i64 noundef %18, i64 noundef 8, ptr noundef @H5A__attr_cmp_name_inc)
  br label %31

19:                                               ; preds = %9
  %20 = load i32, ptr %6, align 4
  %21 = icmp eq i32 %20, 1
  br i1 %21, label %22, label %29

22:                                               ; preds = %19
  %23 = load ptr, ptr %4, align 8
  %24 = getelementptr inbounds %struct.H5A_attr_table_t, ptr %23, i32 0, i32 2
  %25 = load ptr, ptr %24, align 8
  %26 = load ptr, ptr %4, align 8
  %27 = getelementptr inbounds %struct.H5A_attr_table_t, ptr %26, i32 0, i32 0
  %28 = load i64, ptr %27, align 8
  call void @qsort(ptr noundef %25, i64 noundef %28, i64 noundef 8, ptr noundef @H5A__attr_cmp_name_dec)
  br label %30

29:                                               ; preds = %19
  br label %30

30:                                               ; preds = %29, %22
  br label %31

31:                                               ; preds = %30, %12
  br label %55

32:                                               ; preds = %3
  %33 = load i32, ptr %6, align 4
  %34 = icmp eq i32 %33, 0
  br i1 %34, label %35, label %42

35:                                               ; preds = %32
  %36 = load ptr, ptr %4, align 8
  %37 = getelementptr inbounds %struct.H5A_attr_table_t, ptr %36, i32 0, i32 2
  %38 = load ptr, ptr %37, align 8
  %39 = load ptr, ptr %4, align 8
  %40 = getelementptr inbounds %struct.H5A_attr_table_t, ptr %39, i32 0, i32 0
  %41 = load i64, ptr %40, align 8
  call void @qsort(ptr noundef %38, i64 noundef %41, i64 noundef 8, ptr noundef @H5A__attr_cmp_corder_inc)
  br label %54

42:                                               ; preds = %32
  %43 = load i32, ptr %6, align 4
  %44 = icmp eq i32 %43, 1
  br i1 %44, label %45, label %52

45:                                               ; preds = %42
  %46 = load ptr, ptr %4, align 8
  %47 = getelementptr inbounds %struct.H5A_attr_table_t, ptr %46, i32 0, i32 2
  %48 = load ptr, ptr %47, align 8
  %49 = load ptr, ptr %4, align 8
  %50 = getelementptr inbounds %struct.H5A_attr_table_t, ptr %49, i32 0, i32 0
  %51 = load i64, ptr %50, align 8
  call void @qsort(ptr noundef %48, i64 noundef %51, i64 noundef 8, ptr noundef @H5A__attr_cmp_corder_dec)
  br label %53

52:                                               ; preds = %42
  br label %53

53:                                               ; preds = %52, %45
  br label %54

54:                                               ; preds = %53, %35
  br label %55

55:                                               ; preds = %54, %31
  ret i32 0
}

; Function Attrs: nounwind uwtable
define i32 @H5A__compact_build_table(ptr noundef %0, ptr noundef %1, i32 noundef %2, i32 noundef %3, ptr noundef %4) #0 {
  %6 = alloca ptr, align 8
  %7 = alloca ptr, align 8
  %8 = alloca i32, align 4
  %9 = alloca i32, align 4
  %10 = alloca ptr, align 8
  %11 = alloca %struct.H5A_compact_bt_ud_t, align 8
  %12 = alloca %struct.H5O_mesg_operator_t, align 8
  %13 = alloca i8, align 1
  %14 = alloca i32, align 4
  %15 = alloca i8, align 1
  store ptr %0, ptr %6, align 8
  store ptr %1, ptr %7, align 8
  store i32 %2, ptr %8, align 4
  store i32 %3, ptr %9, align 4
  store ptr %4, ptr %10, align 8
  store i8 0, ptr %13, align 1
  store i32 0, ptr %14, align 4
  store i8 0, ptr %15, align 1
  %16 = load ptr, ptr %10, align 8
  %17 = getelementptr inbounds %struct.H5A_attr_table_t, ptr %16, i32 0, i32 2
  store ptr null, ptr %17, align 8
  %18 = load ptr, ptr %10, align 8
  %19 = getelementptr inbounds %struct.H5A_attr_table_t, ptr %18, i32 0, i32 0
  store i64 0, ptr %19, align 8
  %20 = load ptr, ptr %10, align 8
  %21 = getelementptr inbounds %struct.H5A_attr_table_t, ptr %20, i32 0, i32 1
  store i64 0, ptr %21, align 8
  %22 = load ptr, ptr %6, align 8
  %23 = getelementptr inbounds %struct.H5A_compact_bt_ud_t, ptr %11, i32 0, i32 0
  store ptr %22, ptr %23, align 8
  %24 = load ptr, ptr %10, align 8
  %25 = getelementptr inbounds %struct.H5A_compact_bt_ud_t, ptr %11, i32 0, i32 1
  store ptr %24, ptr %25, align 8
  %26 = load ptr, ptr %7, align 8
  %27 = getelementptr inbounds %struct.H5O_t, ptr %26, i32 0, i32 7
  %28 = load i8, ptr %27, align 8
  %29 = zext i8 %28 to i32
  %30 = icmp eq i32 %29, 1
  br i1 %30, label %39, label %31

31:                                               ; preds = %5
  %32 = load ptr, ptr %7, align 8
  %33 = getelementptr inbounds %struct.H5O_t, ptr %32, i32 0, i32 8
  %34 = load i8, ptr %33, align 1
  %35 = zext i8 %34 to i32
  %36 = and i32 %35, 4
  %37 = icmp ne i32 %36, 0
  %38 = xor i1 %37, true
  br label %39

39:                                               ; preds = %31, %5
  %40 = phi i1 [ true, %5 ], [ %38, %31 ]
  %41 = select i1 %40, i32 1, i32 0
  %42 = icmp ne i32 %41, 0
  %43 = getelementptr inbounds %struct.H5A_compact_bt_ud_t, ptr %11, i32 0, i32 2
  %44 = zext i1 %42 to i8
  store i8 %44, ptr %43, align 8
  %45 = getelementptr inbounds %struct.H5O_mesg_operator_t, ptr %12, i32 0, i32 0
  store i32 1, ptr %45, align 8
  %46 = getelementptr inbounds %struct.H5O_mesg_operator_t, ptr %12, i32 0, i32 1
  store ptr @H5A__compact_build_table_cb, ptr %46, align 8
  store i8 1, ptr %13, align 1
  %47 = load ptr, ptr %6, align 8
  %48 = load ptr, ptr %7, align 8
  %49 = call i32 @H5O__msg_iterate_real(ptr noundef %47, ptr noundef %48, ptr noundef @H5O_MSG_ATTR, ptr noundef %12, ptr noundef %11)
  %50 = icmp slt i32 %49, 0
  br i1 %50, label %51, label %66

51:                                               ; preds = %39
  br label %52

52:                                               ; preds = %51
  br label %53

53:                                               ; preds = %52
  br label %54

54:                                               ; preds = %53
  %55 = load i64, ptr @H5E_ATTR_g, align 8
  %56 = load i64, ptr @H5E_BADITER_g, align 8
  %57 = call i32 (ptr, ptr, i32, i64, i64, ptr, ...) @H5E_printf_stack(ptr noundef @.str.3, ptr noundef @__func__.H5A__compact_build_table, i32 noundef 1527, i64 noundef %55, i64 noundef %56, ptr noundef @.str.58)
  br label %58

58:                                               ; preds = %54
  store i8 1, ptr %15, align 1
  %59 = load i8, ptr %15, align 1
  %60 = trunc i8 %59 to i1
  %61 = zext i1 %60 to i8
  store i8 %61, ptr %15, align 1
  br label %62

62:                                               ; preds = %58
  br label %63

63:                                               ; preds = %62
  store i32 -1, ptr %14, align 4
  br label %94

64:                                               ; No predecessors!
  br label %65

65:                                               ; preds = %64
  br label %66

66:                                               ; preds = %65, %39
  %67 = load ptr, ptr %10, align 8
  %68 = getelementptr inbounds %struct.H5A_attr_table_t, ptr %67, i32 0, i32 0
  %69 = load i64, ptr %68, align 8
  %70 = icmp ugt i64 %69, 0
  br i1 %70, label %71, label %93

71:                                               ; preds = %66
  %72 = load ptr, ptr %10, align 8
  %73 = load i32, ptr %8, align 4
  %74 = load i32, ptr %9, align 4
  %75 = call i32 @H5A__attr_sort_table(ptr noundef %72, i32 noundef %73, i32 noundef %74)
  %76 = icmp slt i32 %75, 0
  br i1 %76, label %77, label %92

77:                                               ; preds = %71
  br label %78

78:                                               ; preds = %77
  br label %79

79:                                               ; preds = %78
  br label %80

80:                                               ; preds = %79
  %81 = load i64, ptr @H5E_ATTR_g, align 8
  %82 = load i64, ptr @H5E_CANTSORT_g, align 8
  %83 = call i32 (ptr, ptr, i32, i64, i64, ptr, ...) @H5E_printf_stack(ptr noundef @.str.3, ptr noundef @__func__.H5A__compact_build_table, i32 noundef 1533, i64 noundef %81, i64 noundef %82, ptr noundef @.str.59)
  br label %84

84:                                               ; preds = %80
  store i8 1, ptr %15, align 1
  %85 = load i8, ptr %15, align 1
  %86 = trunc i8 %85 to i1
  %87 = zext i1 %86 to i8
  store i8 %87, ptr %15, align 1
  br label %88

88:                                               ; preds = %84
  br label %89

89:                                               ; preds = %88
  store i32 -1, ptr %14, align 4
  br label %94

90:                                               ; No predecessors!
  br label %91

91:                                               ; preds = %90
  br label %92

92:                                               ; preds = %91, %71
  br label %93

93:                                               ; preds = %92, %66
  br label %94

94:                                               ; preds = %93, %89, %63
  %95 = load i32, ptr %14, align 4
  %96 = icmp slt i32 %95, 0
  br i1 %96, label %97, label %124

97:                                               ; preds = %94
  %98 = load i8, ptr %13, align 1
  %99 = trunc i8 %98 to i1
  br i1 %99, label %100, label %123

100:                                              ; preds = %97
  %101 = load ptr, ptr %10, align 8
  %102 = getelementptr inbounds %struct.H5A_attr_table_t, ptr %101, i32 0, i32 2
  %103 = load ptr, ptr %102, align 8
  %104 = icmp ne ptr %103, null
  br i1 %104, label %105, label %122

105:                                              ; preds = %100
  %106 = load ptr, ptr %10, align 8
  %107 = call i32 @H5A__attr_release_table(ptr noundef %106)
  %108 = icmp slt i32 %107, 0
  br i1 %108, label %109, label %122

109:                                              ; preds = %105
  br label %110

110:                                              ; preds = %109
  br label %111

111:                                              ; preds = %110
  br label %112

112:                                              ; preds = %111
  %113 = load i64, ptr @H5E_ATTR_g, align 8
  %114 = load i64, ptr @H5E_CANTFREE_g, align 8
  %115 = call i32 (ptr, ptr, i32, i64, i64, ptr, ...) @H5E_printf_stack(ptr noundef @.str.3, ptr noundef @__func__.H5A__compact_build_table, i32 noundef 1540, i64 noundef %113, i64 noundef %114, ptr noundef @.str.60)
  br label %116

116:                                              ; preds = %112
  store i8 1, ptr %15, align 1
  %117 = load i8, ptr %15, align 1
  %118 = trunc i8 %117 to i1
  %119 = zext i1 %118 to i8
  store i8 %119, ptr %15, align 1
  br label %120

120:                                              ; preds = %116
  store i32 -1, ptr %14, align 4
  br label %121

121:                                              ; preds = %120
  br label %122

122:                                              ; preds = %121, %105, %100
  br label %123

123:                                              ; preds = %122, %97
  br label %124

124:                                              ; preds = %123, %94
  %125 = load i32, ptr %14, align 4
  ret i32 %125
}