; Function Attrs: nounwind uwtable
define range(i32 -1, 1) i32 @H5A__compact_build_table(ptr noundef %0, ptr noundef %1, i32 noundef %2, i32 noundef %3, ptr noundef %4) local_unnamed_addr #0 {
  %6 = alloca %struct.H5A_compact_bt_ud_t, align 8
  %7 = alloca %struct.H5O_mesg_operator_t, align 8
  %8 = getelementptr inbounds i8, ptr %4, i64 16
  tail call void @llvm.memset.p0.i64(ptr noundef nonnull align 8 dereferenceable(24) %4, i8 0, i64 24, i1 false)
  store ptr %0, ptr %6, align 8
  %9 = getelementptr inbounds i8, ptr %6, i64 8
  store ptr %4, ptr %9, align 8
  %10 = getelementptr inbounds i8, ptr %1, i64 288
  %11 = load i8, ptr %10, align 8
  %12 = icmp eq i8 %11, 1
  br i1 %12, label %18, label %13

13:                                               ; preds = %5
  %14 = getelementptr inbounds i8, ptr %1, i64 289
  %15 = load i8, ptr %14, align 1
  %16 = lshr i8 %15, 2
  %.lobit = and i8 %16, 1
  %17 = xor i8 %.lobit, 1
  br label %18

18:                                               ; preds = %13, %5
  %19 = phi i8 [ 1, %5 ], [ %17, %13 ]
  %20 = getelementptr inbounds i8, ptr %6, i64 16
  store i8 %19, ptr %20, align 8
  store i32 1, ptr %7, align 8
  %21 = getelementptr inbounds i8, ptr %7, i64 8
  store ptr @H5A__compact_build_table_cb, ptr %21, align 8
  %22 = call i32 @H5O__msg_iterate_real(ptr noundef %0, ptr noundef nonnull %1, ptr noundef nonnull @H5O_MSG_ATTR, ptr noundef nonnull %7, ptr noundef nonnull %6) #13
  %23 = icmp slt i32 %22, 0
  br i1 %23, label %33, label %24

24:                                               ; preds = %18
  %25 = load i64, ptr %4, align 8
  %.not = icmp eq i64 %25, 0
  br i1 %.not, label %H5A__attr_sort_table.exit.thread, label %26

26:                                               ; preds = %24
  %27 = icmp eq i32 %2, 0
  br i1 %27, label %28, label %30

28:                                               ; preds = %26
  switch i32 %3, label %H5A__attr_sort_table.exit.thread [
    i32 0, label %.sink.split.i
    i32 1, label %29
  ]

29:                                               ; preds = %28
  br label %.sink.split.i

30:                                               ; preds = %26
  switch i32 %3, label %H5A__attr_sort_table.exit.thread [
    i32 0, label %.sink.split.i
    i32 1, label %31
  ]

31:                                               ; preds = %30
  br label %.sink.split.i

.sink.split.i:                                    ; preds = %31, %30, %29, %28
  %H5A__attr_cmp_corder_inc.sink.i = phi ptr [ @H5A__attr_cmp_corder_dec, %31 ], [ @H5A__attr_cmp_name_dec, %29 ], [ @H5A__attr_cmp_name_inc, %28 ], [ @H5A__attr_cmp_corder_inc, %30 ]
  %32 = load ptr, ptr %8, align 8
  call void @qsort(ptr noundef %32, i64 noundef %25, i64 noundef 8, ptr noundef nonnull %H5A__attr_cmp_corder_inc.sink.i) #13
  br label %H5A__attr_sort_table.exit.thread

33:                                               ; preds = %18
  %34 = load i64, ptr @H5E_ATTR_g, align 8
  %35 = load i64, ptr @H5E_BADITER_g, align 8
  %36 = call i32 (ptr, ptr, i32, i64, i64, ptr, ...) @H5E_printf_stack(ptr noundef nonnull @.str.3, ptr noundef nonnull @__func__.H5A__compact_build_table, i32 noundef 1527, i64 noundef %34, i64 noundef %35, ptr noundef nonnull @.str.58) #13
  %37 = load ptr, ptr %8, align 8
  %.not20 = icmp eq ptr %37, null
  br i1 %.not20, label %H5A__attr_sort_table.exit.thread, label %38

38:                                               ; preds = %33
  %39 = load i64, ptr %4, align 8
  %.not.i = icmp eq i64 %39, 0
  br i1 %.not.i, label %H5A__attr_sort_table.exit.thread, label %.lr.ph.i

.lr.ph.i:                                         ; preds = %38, %47
  %40 = phi i64 [ %48, %47 ], [ %39, %38 ]
  %.014.i = phi i64 [ %49, %47 ], [ 0, %38 ]
  %41 = load ptr, ptr %8, align 8
  %42 = getelementptr inbounds ptr, ptr %41, i64 %.014.i
  %43 = load ptr, ptr %42, align 8
  %.not13.i = icmp eq ptr %43, null
  br i1 %.not13.i, label %47, label %44

44:                                               ; preds = %.lr.ph.i
  %45 = call i32 @H5A__close(ptr noundef nonnull %43)
  %46 = icmp slt i32 %45, 0
  br i1 %46, label %53, label %._crit_edge16.i

._crit_edge16.i:                                  ; preds = %44
  %.pre.i = load i64, ptr %4, align 8
  br label %47

47:                                               ; preds = %._crit_edge16.i, %.lr.ph.i
  %48 = phi i64 [ %.pre.i, %._crit_edge16.i ], [ %40, %.lr.ph.i ]
  %49 = add nuw i64 %.014.i, 1
  %50 = icmp ult i64 %49, %48
  br i1 %50, label %.lr.ph.i, label %._crit_edge.i

._crit_edge.i:                                    ; preds = %47
  %51 = load ptr, ptr %8, align 8
  %52 = call ptr @H5FL_seq_free(ptr noundef nonnull @H5_H5A_t_ptr_seq_free_list, ptr noundef %51) #13
  store ptr %52, ptr %8, align 8
  br label %H5A__attr_sort_table.exit.thread

53:                                               ; preds = %44
  %54 = load i64, ptr @H5E_ATTR_g, align 8
  %55 = load i64, ptr @H5E_CANTFREE_g, align 8
  %56 = call i32 (ptr, ptr, i32, i64, i64, ptr, ...) @H5E_printf_stack(ptr noundef nonnull @.str.3, ptr noundef nonnull @__func__.H5A__attr_release_table, i32 noundef 1909, i64 noundef %54, i64 noundef %55, ptr noundef nonnull @.str.67) #13
  %57 = load i64, ptr @H5E_ATTR_g, align 8
  %58 = load i64, ptr @H5E_CANTFREE_g, align 8
  %59 = call i32 (ptr, ptr, i32, i64, i64, ptr, ...) @H5E_printf_stack(ptr noundef nonnull @.str.3, ptr noundef nonnull @__func__.H5A__compact_build_table, i32 noundef 1540, i64 noundef %57, i64 noundef %58, ptr noundef nonnull @.str.60) #13
  br label %H5A__attr_sort_table.exit.thread

H5A__attr_sort_table.exit.thread:                 ; preds = %38, %._crit_edge.i, %24, %28, %30, %.sink.split.i, %53, %33
  %.1 = phi i32 [ -1, %53 ], [ -1, %33 ], [ 0, %.sink.split.i ], [ 0, %30 ], [ 0, %28 ], [ 0, %24 ], [ -1, %._crit_edge.i ], [ -1, %38 ]
  ret i32 %.1
}